target datalayout = "e-m:e-p270:32:32-p271:32:32-p272:64:64-i64:64-i128:128-f80:128-n8:16:32:64-S128"
target triple = "x86_64-pc-linux-gnu"

%struct.Cut_OracleStruct_t_ = type { ptr, ptr, i32, ptr, ptr, ptr, ptr, ptr, ptr, ptr, i32, i32, i64, i32, i32 }
%struct.Vec_Ptr_t_ = type { i32, i32, ptr }
%struct.Cut_CutStruct_t_ = type { i32, i32, i32, i32, ptr, [0 x i32] }

; Function Attrs: inlinehint nounwind uwtable
define internal void @Vec_PtrWriteEntry(ptr noundef %0, i32 noundef %1, ptr noundef %2) #4 {
  %4 = alloca ptr, align 8
  %5 = alloca i32, align 4
  %6 = alloca ptr, align 8
  store ptr %0, ptr %4, align 8, !tbaa !38
  store i32 %1, ptr %5, align 4, !tbaa !37
  store ptr %2, ptr %6, align 8, !tbaa !43
  %7 = load ptr, ptr %6, align 8, !tbaa !43
  %8 = load ptr, ptr %4, align 8, !tbaa !38
  %9 = getelementptr inbounds nuw %struct.Vec_Ptr_t_, ptr %8, i32 0, i32 2
  %10 = load ptr, ptr %9, align 8, !tbaa !42
  %11 = load i32, ptr %5, align 4, !tbaa !37
  %12 = sext i32 %11 to i64
  %13 = getelementptr inbounds ptr, ptr %10, i64 %12
  store ptr %7, ptr %13, align 8, !tbaa !43
  ret void
}

; Function Attrs: inlinehint nounwind uwtable
define internal ptr @Vec_PtrEntry(ptr noundef %0, i32 noundef %1) #4 {
  %3 = alloca ptr, align 8
  %4 = alloca i32, align 4
  store ptr %0, ptr %3, align 8, !tbaa !38
  store i32 %1, ptr %4, align 4, !tbaa !37
  %5 = load ptr, ptr %3, align 8, !tbaa !38
  %6 = getelementptr inbounds nuw %struct.Vec_Ptr_t_, ptr %5, i32 0, i32 2
  %7 = load ptr, ptr %6, align 8, !tbaa !42
  %8 = load i32, ptr %4, align 4, !tbaa !37
  %9 = sext i32 %8 to i64
  %10 = getelementptr inbounds ptr, ptr %7, i64 %9
  %11 = load ptr, ptr %10, align 8, !tbaa !43
  ret ptr %11
}

; Function Attrs: nounwind uwtable
define void @Cut_OracleFreeCuts(ptr noundef %0, i32 noundef %1) #0 {
  %3 = alloca ptr, align 8
  %4 = alloca i32, align 4
  %5 = alloca ptr, align 8
  %6 = alloca ptr, align 8
  %7 = alloca ptr, align 8
  %8 = alloca i32, align 4
  store ptr %0, ptr %3, align 8, !tbaa !8
  store i32 %1, ptr %4, align 4, !tbaa !37
  call void @llvm.lifetime.start.p0(i64 8, ptr %5) #10
  call void @llvm.lifetime.start.p0(i64 8, ptr %6) #10
  call void @llvm.lifetime.start.p0(i64 8, ptr %7) #10
  %9 = load ptr, ptr %3, align 8, !tbaa !8
  %10 = getelementptr inbounds nuw %struct.Cut_OracleStruct_t_, ptr %9, i32 0, i32 3
  %11 = load ptr, ptr %10, align 8, !tbaa !29
  %12 = load i32, ptr %4, align 4, !tbaa !37
  %13 = call ptr @Vec_PtrEntry(ptr noundef %11, i32 noundef %12)
  store ptr %13, ptr %5, align 8, !tbaa !59
  %14 = load ptr, ptr %5, align 8, !tbaa !59
  %15 = icmp eq ptr %14, null
  br i1 %15, label %16, label %17

16:                                               ; preds = %2
  store i32 1, ptr %8, align 4
  br label %53

17:                                               ; preds = %2
  %18 = load ptr, ptr %5, align 8, !tbaa !59
  store ptr %18, ptr %6, align 8, !tbaa !59
  %19 = load ptr, ptr %6, align 8, !tbaa !59
  %20 = icmp ne ptr %19, null
  br i1 %20, label %21, label %25

21:                                               ; preds = %17
  %22 = load ptr, ptr %6, align 8, !tbaa !59
  %23 = getelementptr inbounds nuw %struct.Cut_CutStruct_t_, ptr %22, i32 0, i32 4
  %24 = load ptr, ptr %23, align 8, !tbaa !66
  br label %26

25:                                               ; preds = %17
  br label %26

26:                                               ; preds = %25, %21
  %27 = phi ptr [ %24, %21 ], [ null, %25 ]
  store ptr %27, ptr %7, align 8, !tbaa !59
  br label %28

28:                                               ; preds = %45, %26
  %29 = load ptr, ptr %6, align 8, !tbaa !59
  %30 = icmp ne ptr %29, null
  br i1 %30, label %31, label %47

31:                                               ; preds = %28
  %32 = load ptr, ptr %3, align 8, !tbaa !8
  %33 = getelementptr inbounds nuw %struct.Cut_OracleStruct_t_, ptr %32, i32 0, i32 9
  %34 = load ptr, ptr %33, align 8, !tbaa !36
  %35 = load ptr, ptr %6, align 8, !tbaa !59
  call void @Extra_MmFixedEntryRecycle(ptr noundef %34, ptr noundef %35)
  br label %36

36:                                               ; preds = %31
  %37 = load ptr, ptr %7, align 8, !tbaa !59
  store ptr %37, ptr %6, align 8, !tbaa !59
  %38 = load ptr, ptr %6, align 8, !tbaa !59
  %39 = icmp ne ptr %38, null
  br i1 %39, label %40, label %44

40:                                               ; preds = %36
  %41 = load ptr, ptr %6, align 8, !tbaa !59
  %42 = getelementptr inbounds nuw %struct.Cut_CutStruct_t_, ptr %41, i32 0, i32 4
  %43 = load ptr, ptr %42, align 8, !tbaa !66
  br label %45

44:                                               ; preds = %36
  br label %45

45:                                               ; preds = %44, %40
  %46 = phi ptr [ %43, %40 ], [ null, %44 ]
  store ptr %46, ptr %7, align 8, !tbaa !59
  br label %28, !llvm.loop !72

47:                                               ; preds = %28
  %48 = load ptr, ptr %3, align 8, !tbaa !8
  %49 = getelementptr inbounds nuw %struct.Cut_OracleStruct_t_, ptr %48, i32 0, i32 3
  %50 = load ptr, ptr %49, align 8, !tbaa !29
  %51 = load i32, ptr %4, align 4, !tbaa !37
  %52 = load ptr, ptr %5, align 8, !tbaa !59
  call void @Vec_PtrWriteEntry(ptr noundef %50, i32 noundef %51, ptr noundef %52)
  store i32 0, ptr %8, align 4
  br label %53

53:                                               ; preds = %47, %16
  call void @llvm.lifetime.end.p0(i64 8, ptr %7) #10
  call void @llvm.lifetime.end.p0(i64 8, ptr %6) #10
  call void @llvm.lifetime.end.p0(i64 8, ptr %5) #10
  %54 = load i32, ptr %8, align 4
  switch i32 %54, label %56 [
    i32 0, label %55
    i32 1, label %55
  ]

55:                                               ; preds = %53, %53
  ret void

56:                                               ; preds = %53
  unreachable
}