; Function Attrs: nounwind uwtable
define void @Cut_OracleFreeCuts(ptr noundef readonly captures(none) %0, i32 noundef %1) local_unnamed_addr #0 {
  %3 = getelementptr inbounds nuw i8, ptr %0, i64 24
  %4 = load ptr, ptr %3, align 8, !tbaa !28
  %5 = getelementptr i8, ptr %4, i64 8
  %.val17 = load ptr, ptr %5, align 8, !tbaa !27
  %6 = sext i32 %1 to i64
  %7 = getelementptr inbounds ptr, ptr %.val17, i64 %6
  %8 = load ptr, ptr %7, align 8, !tbaa !29
  %9 = icmp eq ptr %8, null
  br i1 %9, label %18, label %10

10:                                               ; preds = %2
  %11 = getelementptr inbounds nuw i8, ptr %0, i64 72
  br label %12

12:                                               ; preds = %12, %10
  %.01418 = phi ptr [ %8, %10 ], [ %.019, %12 ]
  %.019.in = getelementptr inbounds nuw i8, ptr %.01418, i64 16
  %.019 = load ptr, ptr %.019.in, align 8, !tbaa !59
  %13 = load ptr, ptr %11, align 8, !tbaa !39
  tail call void @Extra_MmFixedEntryRecycle(ptr noundef %13, ptr noundef nonnull %.01418) #18
  %.not16 = icmp eq ptr %.019, null
  br i1 %.not16, label %14, label %12, !llvm.loop !66

14:                                               ; preds = %12
  %15 = load ptr, ptr %3, align 8, !tbaa !28
  %16 = getelementptr i8, ptr %15, i64 8
  %.val = load ptr, ptr %16, align 8, !tbaa !27
  %17 = getelementptr inbounds ptr, ptr %.val, i64 %6
  store ptr %8, ptr %17, align 8, !tbaa !29
  br label %18

18:                                               ; preds = %2, %14
  ret void
}